; Function Attrs: mustprogress nounwind uwtable
define internal void @_ZN12_GLOBAL__N_115RISCVPassConfig14addPreRegAllocEv(ptr noundef nonnull align 8 dereferenceable(134) %0) unnamed_addr #0 align 2 {
  %2 = tail call noundef ptr @_ZN4llvm32createRISCVPreRAExpandPseudoPassEv() #24
  tail call void @_ZN4llvm16TargetPassConfig7addPassEPNS_4PassE(ptr noundef nonnull align 8 dereferenceable(134) %0, ptr noundef %2) #24
  %3 = getelementptr inbounds nuw i8, ptr %0, i64 112
  %4 = load ptr, ptr %3, align 8
  %5 = getelementptr inbounds nuw i8, ptr %4, i64 664
  %6 = load i32, ptr %5, align 8
  %.not = icmp eq i32 %6, 0
  br i1 %.not, label %9, label %7

7:                                                ; preds = %1
  %8 = tail call noundef ptr @_ZN4llvm33createRISCVMergeBaseOffsetOptPassEv() #24
  tail call void @_ZN4llvm16TargetPassConfig7addPassEPNS_4PassE(ptr noundef nonnull align 8 dereferenceable(134) %0, ptr noundef %8) #24
  br label %9

9:                                                ; preds = %7, %1
  %10 = tail call noundef ptr @_ZN4llvm33createRISCVInsertReadWriteCSRPassEv() #24
  tail call void @_ZN4llvm16TargetPassConfig7addPassEPNS_4PassE(ptr noundef nonnull align 8 dereferenceable(134) %0, ptr noundef %10) #24
  %11 = tail call noundef ptr @_ZN4llvm30createRISCVInsertWriteVXRMPassEv() #24
  tail call void @_ZN4llvm16TargetPassConfig7addPassEPNS_4PassE(ptr noundef nonnull align 8 dereferenceable(134) %0, ptr noundef %11) #24
  %12 = tail call noundef ptr @_ZN4llvm30createRISCVLandingPadSetupPassEv() #24
  tail call void @_ZN4llvm16TargetPassConfig7addPassEPNS_4PassE(ptr noundef nonnull align 8 dereferenceable(134) %0, ptr noundef %12) #24
  %13 = load i8, ptr getelementptr inbounds (i8, ptr @_ZL29EnableVSETVLIAfterRVVRegAlloc, i64 128), align 8
  %14 = trunc i8 %13 to i1
  br i1 %14, label %21, label %.sink.split

.sink.split:                                      ; preds = %9
  %15 = load ptr, ptr %3, align 8
  %16 = getelementptr inbounds nuw i8, ptr %15, i64 664
  %17 = load i32, ptr %16, align 8
  %18 = icmp eq i32 %17, 0
  %19 = load ptr, ptr @_ZN4llvm20RISCVInsertVSETVLIIDE, align 8
  %_ZN4llvm16PHIEliminationIDE.val = load ptr, ptr @_ZN4llvm16PHIEliminationIDE, align 8
  %_ZN4llvm19RegisterCoalescerIDE.val = load ptr, ptr @_ZN4llvm19RegisterCoalescerIDE, align 8
  %20 = select i1 %18, ptr %_ZN4llvm16PHIEliminationIDE.val, ptr %_ZN4llvm19RegisterCoalescerIDE.val
  tail call void @_ZN4llvm16TargetPassConfig10insertPassEPKvNS_18IdentifyingPassPtrE(ptr noundef nonnull align 8 dereferenceable(134) %0, ptr noundef %20, ptr %19, i8 0) #24
  br label %21

21:                                               ; preds = %.sink.split, %9
  ret void
}